target datalayout = "e-m:e-p270:32:32-p271:32:32-p272:64:64-i64:64-i128:128-f80:128-n8:16:32:64-S128"
target triple = "x86_64-pc-linux-gnu"

%struct.png_info_def = type { i32, i32, i32, i64, ptr, i16, i16, i8, i8, i8, i8, i8, i8, i8, i8, [8 x i8], %struct.png_colorspace, ptr, ptr, i32, i32, i32, ptr, %struct.png_time_struct, %struct.png_color_8_struct, ptr, %struct.png_color_16_struct, %struct.png_color_16_struct, i32, i32, i8, i32, i32, i8, i32, ptr, ptr, ptr, ptr, i32, i32, ptr, ptr, i8, i8, i32, ptr, i32, ptr, i32, i8, ptr, ptr, ptr }
%struct.png_colorspace = type { i32, %struct.png_xy, %struct.png_XYZ, i16, i16 }
%struct.png_xy = type { i32, i32, i32, i32, i32, i32, i32, i32 }
%struct.png_XYZ = type { i32, i32, i32, i32, i32, i32, i32, i32, i32 }
%struct.png_time_struct = type { i16, i8, i8, i8, i8, i8 }
%struct.png_color_8_struct = type { i8, i8, i8, i8, i8 }
%struct.png_color_16_struct = type { i8, i16, i16, i16, i16 }

@.str.14 = private unnamed_addr constant [46 x i8] c"Invalid palette size, hIST allocation skipped\00", align 1
@.str.15 = private unnamed_addr constant [40 x i8] c"Insufficient memory for hIST chunk data\00", align 1

; Function Attrs: nounwind uwtable
define void @png_set_hIST(ptr noalias noundef %0, ptr noalias noundef %1, ptr noundef %2) #0 {
  %4 = alloca ptr, align 8
  %5 = alloca ptr, align 8
  %6 = alloca ptr, align 8
  %7 = alloca i32, align 4
  store ptr %0, ptr %4, align 8
  store ptr %1, ptr %5, align 8
  store ptr %2, ptr %6, align 8
  %8 = load ptr, ptr %4, align 8
  %9 = icmp eq ptr %8, null
  br i1 %9, label %13, label %10

10:                                               ; preds = %3
  %11 = load ptr, ptr %5, align 8
  %12 = icmp eq ptr %11, null
  br i1 %12, label %13, label %14

13:                                               ; preds = %10, %3
  br label %73

14:                                               ; preds = %10
  %15 = load ptr, ptr %5, align 8
  %16 = getelementptr inbounds %struct.png_info_def, ptr %15, i32 0, i32 5
  %17 = load i16, ptr %16, align 8
  %18 = zext i16 %17 to i32
  %19 = icmp eq i32 %18, 0
  br i1 %19, label %26, label %20

20:                                               ; preds = %14
  %21 = load ptr, ptr %5, align 8
  %22 = getelementptr inbounds %struct.png_info_def, ptr %21, i32 0, i32 5
  %23 = load i16, ptr %22, align 8
  %24 = zext i16 %23 to i32
  %25 = icmp sgt i32 %24, 256
  br i1 %25, label %26, label %28

26:                                               ; preds = %20, %14
  %27 = load ptr, ptr %4, align 8
  call void @png_warning(ptr noundef %27, ptr noundef @.str.14)
  br label %73

28:                                               ; preds = %20
  %29 = load ptr, ptr %4, align 8
  %30 = load ptr, ptr %5, align 8
  call void @png_free_data(ptr noundef %29, ptr noundef %30, i32 noundef 8, i32 noundef 0)
  %31 = load ptr, ptr %4, align 8
  %32 = call noalias ptr @png_malloc_warn(ptr noundef %31, i64 noundef 512)
  %33 = load ptr, ptr %5, align 8
  %34 = getelementptr inbounds %struct.png_info_def, ptr %33, i32 0, i32 37
  store ptr %32, ptr %34, align 8
  %35 = load ptr, ptr %5, align 8
  %36 = getelementptr inbounds %struct.png_info_def, ptr %35, i32 0, i32 37
  %37 = load ptr, ptr %36, align 8
  %38 = icmp eq ptr %37, null
  br i1 %38, label %39, label %41

39:                                               ; preds = %28
  %40 = load ptr, ptr %4, align 8
  call void @png_warning(ptr noundef %40, ptr noundef @.str.15)
  br label %73

41:                                               ; preds = %28
  store i32 0, ptr %7, align 4
  br label %42

42:                                               ; preds = %61, %41
  %43 = load i32, ptr %7, align 4
  %44 = load ptr, ptr %5, align 8
  %45 = getelementptr inbounds %struct.png_info_def, ptr %44, i32 0, i32 5
  %46 = load i16, ptr %45, align 8
  %47 = zext i16 %46 to i32
  %48 = icmp slt i32 %43, %47
  br i1 %48, label %49, label %64

49:                                               ; preds = %42
  %50 = load ptr, ptr %6, align 8
  %51 = load i32, ptr %7, align 4
  %52 = sext i32 %51 to i64
  %53 = getelementptr inbounds i16, ptr %50, i64 %52
  %54 = load i16, ptr %53, align 2
  %55 = load ptr, ptr %5, align 8
  %56 = getelementptr inbounds %struct.png_info_def, ptr %55, i32 0, i32 37
  %57 = load ptr, ptr %56, align 8
  %58 = load i32, ptr %7, align 4
  %59 = sext i32 %58 to i64
  %60 = getelementptr inbounds i16, ptr %57, i64 %59
  store i16 %54, ptr %60, align 2
  br label %61

61:                                               ; preds = %49
  %62 = load i32, ptr %7, align 4
  %63 = add nsw i32 %62, 1
  store i32 %63, ptr %7, align 4
  br label %42, !llvm.loop !4

64:                                               ; preds = %42
  %65 = load ptr, ptr %5, align 8
  %66 = getelementptr inbounds %struct.png_info_def, ptr %65, i32 0, i32 45
  %67 = load i32, ptr %66, align 4
  %68 = or i32 %67, 8
  store i32 %68, ptr %66, align 4
  %69 = load ptr, ptr %5, align 8
  %70 = getelementptr inbounds %struct.png_info_def, ptr %69, i32 0, i32 2
  %71 = load i32, ptr %70, align 8
  %72 = or i32 %71, 64
  store i32 %72, ptr %70, align 8
  br label %73

73:                                               ; preds = %64, %39, %26, %13
  ret void
}