; Function Attrs: nounwind uwtable
define void @png_set_hIST(ptr noalias noundef %0, ptr noalias noundef %1, ptr nocapture noundef readonly %2) local_unnamed_addr #2 {
  %4 = icmp eq ptr %0, null
  %5 = icmp eq ptr %1, null
  %or.cond = or i1 %4, %5
  br i1 %or.cond, label %30, label %6

6:                                                ; preds = %3
  %7 = getelementptr inbounds i8, ptr %1, i64 32
  %8 = load i16, ptr %7, align 8
  %9 = add i16 %8, -257
  %or.cond23 = icmp ult i16 %9, -256
  br i1 %or.cond23, label %10, label %11

10:                                               ; preds = %6
  tail call void @png_warning(ptr noundef nonnull %0, ptr noundef nonnull @.str.14) #12
  br label %30

11:                                               ; preds = %6
  tail call void @png_free_data(ptr noundef nonnull %0, ptr noundef nonnull %1, i32 noundef 8, i32 noundef 0) #12
  %12 = tail call noalias ptr @png_malloc_warn(ptr noundef nonnull %0, i64 noundef 512) #12
  %13 = getelementptr inbounds i8, ptr %1, i64 256
  store ptr %12, ptr %13, align 8
  %14 = icmp eq ptr %12, null
  br i1 %14, label %16, label %.preheader

.preheader:                                       ; preds = %11
  %15 = load i16, ptr %7, align 8
  %.not = icmp eq i16 %15, 0
  br i1 %.not, label %._crit_edge, label %.lr.ph

16:                                               ; preds = %11
  tail call void @png_warning(ptr noundef nonnull %0, ptr noundef nonnull @.str.15) #12
  br label %30

.lr.ph:                                           ; preds = %.preheader, %.lr.ph
  %indvars.iv = phi i64 [ %indvars.iv.next, %.lr.ph ], [ 0, %.preheader ]
  %17 = getelementptr inbounds i16, ptr %2, i64 %indvars.iv
  %18 = load i16, ptr %17, align 2
  %19 = load ptr, ptr %13, align 8
  %20 = getelementptr inbounds i16, ptr %19, i64 %indvars.iv
  store i16 %18, ptr %20, align 2
  %indvars.iv.next = add nuw nsw i64 %indvars.iv, 1
  %21 = load i16, ptr %7, align 8
  %22 = zext i16 %21 to i64
  %23 = icmp ult i64 %indvars.iv.next, %22
  br i1 %23, label %.lr.ph, label %._crit_edge, !llvm.loop !16

._crit_edge:                                      ; preds = %.lr.ph, %.preheader
  %24 = getelementptr inbounds i8, ptr %1, i64 300
  %25 = load i32, ptr %24, align 4
  %26 = or i32 %25, 8
  store i32 %26, ptr %24, align 4
  %27 = getelementptr inbounds i8, ptr %1, i64 8
  %28 = load i32, ptr %27, align 8
  %29 = or i32 %28, 64
  store i32 %29, ptr %27, align 8
  br label %30

30:                                               ; preds = %3, %._crit_edge, %16, %10
  ret void
}